target datalayout = "e-m:e-p270:32:32-p271:32:32-p272:64:64-i64:64-i128:128-f80:128-n8:16:32:64-S128"
target triple = "x86_64-unknown-linux-gnu"

%"class.icu_75::LocalPointer" = type { %"class.icu_75::LocalPointerBase" }
%"class.icu_75::LocalPointerBase" = type { ptr }
%"class.icu_75::TextTrieMap" = type { ptr, i8, ptr, i32, i32, ptr, i8, ptr }

; Function Attrs: mustprogress nounwind uwtable
define linkonce_odr void @_ZN6icu_7516LocalPointerBaseINS_7UVectorEED2Ev(ptr noundef nonnull align 8 dereferenceable(8) %this) unnamed_addr #0 comdat align 2 {
entry:
  %this.addr = alloca ptr, align 8
  store ptr %this, ptr %this.addr, align 8
  ret void
}

; Function Attrs: mustprogress nounwind uwtable
define internal noundef signext i8 @_ZL9U_SUCCESS10UErrorCode(i32 noundef %code) #0 {
entry:
  %code.addr = alloca i32, align 4
  store i32 %code, ptr %code.addr, align 4
  %0 = load i32, ptr %code.addr, align 4
  %cmp = icmp sle i32 %0, 0
  %conv = zext i1 %cmp to i8
  ret i8 %conv
}

; Function Attrs: mustprogress nounwind uwtable
define linkonce_odr void @_ZN6icu_7516LocalPointerBaseINS_7UVectorEEC2EPS1_(ptr noundef nonnull align 8 dereferenceable(8) %this, ptr noundef %p) unnamed_addr #0 comdat align 2 {
entry:
  %this.addr = alloca ptr, align 8
  %p.addr = alloca ptr, align 8
  store ptr %this, ptr %this.addr, align 8
  store ptr %p, ptr %p.addr, align 8
  %this1 = load ptr, ptr %this.addr, align 8
  %ptr = getelementptr inbounds %"class.icu_75::LocalPointerBase", ptr %this1, i32 0, i32 0
  %0 = load ptr, ptr %p.addr, align 8
  store ptr %0, ptr %ptr, align 8
  ret void
}

; Function Attrs: mustprogress nounwind uwtable
define internal noundef signext i8 @_ZL9U_FAILURE10UErrorCode(i32 noundef %code) #0 {
entry:
  %code.addr = alloca i32, align 4
  store i32 %code, ptr %code.addr, align 4
  %0 = load i32, ptr %code.addr, align 4
  %cmp = icmp sgt i32 %0, 0
  %conv = zext i1 %cmp to i8
  ret i8 %conv
}

; Function Attrs: mustprogress nounwind uwtable
define linkonce_odr void @_ZN6icu_7512LocalPointerINS_7UVectorEED2Ev(ptr noundef nonnull align 8 dereferenceable(8) %this) unnamed_addr #0 comdat align 2 {
entry:
  %this.addr = alloca ptr, align 8
  store ptr %this, ptr %this.addr, align 8
  %this1 = load ptr, ptr %this.addr, align 8
  %ptr = getelementptr inbounds %"class.icu_75::LocalPointerBase", ptr %this1, i32 0, i32 0
  %0 = load ptr, ptr %ptr, align 8
  %isnull = icmp eq ptr %0, null
  br i1 %isnull, label %delete.end, label %delete.notnull

delete.notnull:                                   ; preds = %entry
  %vtable = load ptr, ptr %0, align 8
  %vfn = getelementptr inbounds ptr, ptr %vtable, i64 1
  %1 = load ptr, ptr %vfn, align 8
  call void %1(ptr noundef nonnull align 8 dereferenceable(40) %0) #10
  br label %delete.end

delete.end:                                       ; preds = %delete.notnull, %entry
  call void @_ZN6icu_7516LocalPointerBaseINS_7UVectorEED2Ev(ptr noundef nonnull align 8 dereferenceable(8) %this1) #10
  ret void
}

; Function Attrs: mustprogress nounwind uwtable
define linkonce_odr noundef ptr @_ZN6icu_7516LocalPointerBaseINS_7UVectorEE6orphanEv(ptr noundef nonnull align 8 dereferenceable(8) %this) #0 comdat align 2 {
entry:
  %this.addr = alloca ptr, align 8
  %p = alloca ptr, align 8
  store ptr %this, ptr %this.addr, align 8
  %this1 = load ptr, ptr %this.addr, align 8
  %ptr = getelementptr inbounds %"class.icu_75::LocalPointerBase", ptr %this1, i32 0, i32 0
  %0 = load ptr, ptr %ptr, align 8
  store ptr %0, ptr %p, align 8
  %ptr2 = getelementptr inbounds %"class.icu_75::LocalPointerBase", ptr %this1, i32 0, i32 0
  store ptr null, ptr %ptr2, align 8
  %1 = load ptr, ptr %p, align 8
  ret ptr %1
}

; Function Attrs: mustprogress uwtable
define linkonce_odr void @_ZN6icu_7512LocalPointerINS_7UVectorEEC2EPS1_R10UErrorCode(ptr noundef nonnull align 8 dereferenceable(8) %this, ptr noundef %p, ptr noundef nonnull align 4 dereferenceable(4) %errorCode) unnamed_addr #1 comdat align 2 {
entry:
  %this.addr = alloca ptr, align 8
  %p.addr = alloca ptr, align 8
  %errorCode.addr = alloca ptr, align 8
  store ptr %this, ptr %this.addr, align 8
  store ptr %p, ptr %p.addr, align 8
  store ptr %errorCode, ptr %errorCode.addr, align 8
  %this1 = load ptr, ptr %this.addr, align 8
  %0 = load ptr, ptr %p.addr, align 8
  call void @_ZN6icu_7516LocalPointerBaseINS_7UVectorEEC2EPS1_(ptr noundef nonnull align 8 dereferenceable(8) %this1, ptr noundef %0)
  %1 = load ptr, ptr %p.addr, align 8
  %cmp = icmp eq ptr %1, null
  br i1 %cmp, label %land.lhs.true, label %if.end

land.lhs.true:                                    ; preds = %entry
  %2 = load ptr, ptr %errorCode.addr, align 8
  %3 = load i32, ptr %2, align 4
  %call = call noundef signext i8 @_ZL9U_SUCCESS10UErrorCode(i32 noundef %3)
  %tobool = icmp ne i8 %call, 0
  br i1 %tobool, label %if.then, label %if.end

if.then:                                          ; preds = %land.lhs.true
  %4 = load ptr, ptr %errorCode.addr, align 8
  store i32 7, ptr %4, align 4
  br label %if.end

if.end:                                           ; preds = %if.then, %land.lhs.true, %entry
  ret void
}

; Function Attrs: mustprogress uwtable
define void @_ZN6icu_7511TextTrieMap3putEPKDsPvR10UErrorCode(ptr noundef nonnull align 8 dereferenceable(56) %this, ptr noundef %key, ptr noundef %value, ptr noundef nonnull align 4 dereferenceable(4) %status) #1 align 2 personality ptr @__gxx_personality_v0 {
entry:
  %this.addr = alloca ptr, align 8
  %key.addr = alloca ptr, align 8
  %value.addr = alloca ptr, align 8
  %status.addr = alloca ptr, align 8
  %lpLazyContents = alloca %"class.icu_75::LocalPointer", align 8
  %saved-rvalue = alloca ptr, align 8
  %cleanup.cond = alloca i1, align 1
  %exn.slot = alloca ptr, align 8
  %ehselector.slot = alloca i32, align 4
  %s = alloca ptr, align 8
  store ptr %this, ptr %this.addr, align 8
  store ptr %key, ptr %key.addr, align 8
  store ptr %value, ptr %value.addr, align 8
  store ptr %status, ptr %status.addr, align 8
  %this1 = load ptr, ptr %this.addr, align 8
  %fIsEmpty = getelementptr inbounds %"class.icu_75::TextTrieMap", ptr %this1, i32 0, i32 6
  store i8 0, ptr %fIsEmpty, align 8
  %fLazyContents = getelementptr inbounds %"class.icu_75::TextTrieMap", ptr %this1, i32 0, i32 5
  %0 = load ptr, ptr %fLazyContents, align 8
  %cmp = icmp eq ptr %0, null
  br i1 %cmp, label %if.then, label %if.end

if.then:                                          ; preds = %entry
  %call = call noundef ptr @_ZN6icu_757UMemorynwEm(i64 noundef 40) #10
  %new.isnull = icmp eq ptr %call, null
  store i1 false, ptr %cleanup.cond, align 1
  br i1 %new.isnull, label %new.cont, label %new.notnull

new.notnull:                                      ; preds = %if.then
  store ptr %call, ptr %saved-rvalue, align 8
  store i1 true, ptr %cleanup.cond, align 1
  %1 = load ptr, ptr %status.addr, align 8
  invoke void @_ZN6icu_757UVectorC1ER10UErrorCode(ptr noundef nonnull align 8 dereferenceable(40) %call, ptr noundef nonnull align 4 dereferenceable(4) %1)
          to label %invoke.cont unwind label %lpad

invoke.cont:                                      ; preds = %new.notnull
  br label %new.cont

new.cont:                                         ; preds = %invoke.cont, %if.then
  %2 = phi ptr [ %call, %invoke.cont ], [ null, %if.then ]
  %3 = load ptr, ptr %status.addr, align 8
  call void @_ZN6icu_7512LocalPointerINS_7UVectorEEC2EPS1_R10UErrorCode(ptr noundef nonnull align 8 dereferenceable(8) %lpLazyContents, ptr noundef %2, ptr noundef nonnull align 4 dereferenceable(4) %3)
  %call4 = invoke noundef ptr @_ZN6icu_7516LocalPointerBaseINS_7UVectorEE6orphanEv(ptr noundef nonnull align 8 dereferenceable(8) %lpLazyContents)
          to label %invoke.cont3 unwind label %lpad2

invoke.cont3:                                     ; preds = %new.cont
  %fLazyContents5 = getelementptr inbounds %"class.icu_75::TextTrieMap", ptr %this1, i32 0, i32 5
  store ptr %call4, ptr %fLazyContents5, align 8
  call void @_ZN6icu_7512LocalPointerINS_7UVectorEED2Ev(ptr noundef nonnull align 8 dereferenceable(8) %lpLazyContents) #10
  br label %if.end

lpad:                                             ; preds = %new.notnull
  %4 = landingpad { ptr, i32 }
          cleanup
  %5 = extractvalue { ptr, i32 } %4, 0
  store ptr %5, ptr %exn.slot, align 8
  %6 = extractvalue { ptr, i32 } %4, 1
  store i32 %6, ptr %ehselector.slot, align 4
  %cleanup.is_active = load i1, ptr %cleanup.cond, align 1
  br i1 %cleanup.is_active, label %cleanup.action, label %cleanup.done

cleanup.action:                                   ; preds = %lpad
  %7 = load ptr, ptr %saved-rvalue, align 8
  call void @_ZN6icu_757UMemorydlEPv(ptr noundef %7) #10
  br label %cleanup.done

cleanup.done:                                     ; preds = %cleanup.action, %lpad
  br label %eh.resume

lpad2:                                            ; preds = %new.cont
  %8 = landingpad { ptr, i32 }
          cleanup
  %9 = extractvalue { ptr, i32 } %8, 0
  store ptr %9, ptr %exn.slot, align 8
  %10 = extractvalue { ptr, i32 } %8, 1
  store i32 %10, ptr %ehselector.slot, align 4
  call void @_ZN6icu_7512LocalPointerINS_7UVectorEED2Ev(ptr noundef nonnull align 8 dereferenceable(8) %lpLazyContents) #10
  br label %eh.resume

if.end:                                           ; preds = %invoke.cont3, %entry
  %11 = load ptr, ptr %status.addr, align 8
  %12 = load i32, ptr %11, align 4
  %call6 = call noundef signext i8 @_ZL9U_FAILURE10UErrorCode(i32 noundef %12)
  %tobool = icmp ne i8 %call6, 0
  br i1 %tobool, label %if.then7, label %if.end12

if.then7:                                         ; preds = %if.end
  %fValueDeleter = getelementptr inbounds %"class.icu_75::TextTrieMap", ptr %this1, i32 0, i32 7
  %13 = load ptr, ptr %fValueDeleter, align 8
  %tobool8 = icmp ne ptr %13, null
  br i1 %tobool8, label %if.then9, label %if.end11

if.then9:                                         ; preds = %if.then7
  %fValueDeleter10 = getelementptr inbounds %"class.icu_75::TextTrieMap", ptr %this1, i32 0, i32 7
  %14 = load ptr, ptr %fValueDeleter10, align 8
  %15 = load ptr, ptr %key.addr, align 8
  call void %14(ptr noundef %15)
  br label %if.end11

if.end11:                                         ; preds = %if.then9, %if.then7
  br label %return

if.end12:                                         ; preds = %if.end
  %16 = load ptr, ptr %key.addr, align 8
  store ptr %16, ptr %s, align 8
  %fLazyContents13 = getelementptr inbounds %"class.icu_75::TextTrieMap", ptr %this1, i32 0, i32 5
  %17 = load ptr, ptr %fLazyContents13, align 8
  %18 = load ptr, ptr %s, align 8
  %19 = load ptr, ptr %status.addr, align 8
  call void @_ZN6icu_757UVector10addElementEPvR10UErrorCode(ptr noundef nonnull align 8 dereferenceable(40) %17, ptr noundef %18, ptr noundef nonnull align 4 dereferenceable(4) %19)
  %20 = load ptr, ptr %status.addr, align 8
  %21 = load i32, ptr %20, align 4
  %call14 = call noundef signext i8 @_ZL9U_FAILURE10UErrorCode(i32 noundef %21)
  %tobool15 = icmp ne i8 %call14, 0
  br i1 %tobool15, label %if.then16, label %if.end22

if.then16:                                        ; preds = %if.end12
  %fValueDeleter17 = getelementptr inbounds %"class.icu_75::TextTrieMap", ptr %this1, i32 0, i32 7
  %22 = load ptr, ptr %fValueDeleter17, align 8
  %tobool18 = icmp ne ptr %22, null
  br i1 %tobool18, label %if.then19, label %if.end21

if.then19:                                        ; preds = %if.then16
  %fValueDeleter20 = getelementptr inbounds %"class.icu_75::TextTrieMap", ptr %this1, i32 0, i32 7
  %23 = load ptr, ptr %fValueDeleter20, align 8
  %24 = load ptr, ptr %key.addr, align 8
  call void %23(ptr noundef %24)
  br label %if.end21

if.end21:                                         ; preds = %if.then19, %if.then16
  br label %return

if.end22:                                         ; preds = %if.end12
  %fLazyContents23 = getelementptr inbounds %"class.icu_75::TextTrieMap", ptr %this1, i32 0, i32 5
  %25 = load ptr, ptr %fLazyContents23, align 8
  %26 = load ptr, ptr %value.addr, align 8
  %27 = load ptr, ptr %status.addr, align 8
  call void @_ZN6icu_757UVector10addElementEPvR10UErrorCode(ptr noundef nonnull align 8 dereferenceable(40) %25, ptr noundef %26, ptr noundef nonnull align 4 dereferenceable(4) %27)
  br label %return

return:                                           ; preds = %if.end22, %if.end21, %if.end11
  ret void

eh.resume:                                        ; preds = %lpad2, %cleanup.done
  %exn = load ptr, ptr %exn.slot, align 8
  %sel = load i32, ptr %ehselector.slot, align 4
  %lpad.val = insertvalue { ptr, i32 } poison, ptr %exn, 0
  %lpad.val24 = insertvalue { ptr, i32 } %lpad.val, i32 %sel, 1
  resume { ptr, i32 } %lpad.val24
}