; Function Attrs: mustprogress uwtable
define void @_ZN6icu_7511TextTrieMap3putEPKDsPvR10UErrorCode(ptr nocapture noundef nonnull align 8 dereferenceable(56) %this, ptr noundef %key, ptr noundef %value, ptr noundef nonnull align 4 dereferenceable(4) %status) local_unnamed_addr #1 align 2 personality ptr @__gxx_personality_v0 {
entry:
  %fIsEmpty = getelementptr inbounds i8, ptr %this, i64 40
  store i8 0, ptr %fIsEmpty, align 8
  %fLazyContents = getelementptr inbounds i8, ptr %this, i64 32
  %0 = load ptr, ptr %fLazyContents, align 8
  %cmp = icmp eq ptr %0, null
  br i1 %cmp, label %if.then, label %if.end

if.then:                                          ; preds = %entry
  %call = tail call noundef ptr @_ZN6icu_757UMemorynwEm(i64 noundef 40) #20
  %new.isnull = icmp eq ptr %call, null
  br i1 %new.isnull, label %new.cont, label %new.notnull

new.notnull:                                      ; preds = %if.then
  invoke void @_ZN6icu_757UVectorC1ER10UErrorCode(ptr noundef nonnull align 8 dereferenceable(40) %call, ptr noundef nonnull align 4 dereferenceable(4) %status)
          to label %_ZN6icu_7512LocalPointerINS_7UVectorEED2Ev.exit unwind label %lpad

new.cont:                                         ; preds = %if.then
  %1 = load i32, ptr %status, align 4
  %cmp.i.i = icmp sgt i32 %1, 0
  br i1 %cmp.i.i, label %_ZN6icu_7512LocalPointerINS_7UVectorEED2Ev.exit, label %if.then.i

if.then.i:                                        ; preds = %new.cont
  store i32 7, ptr %status, align 4
  br label %_ZN6icu_7512LocalPointerINS_7UVectorEED2Ev.exit

_ZN6icu_7512LocalPointerINS_7UVectorEED2Ev.exit:  ; preds = %new.notnull, %if.then.i, %new.cont
  store ptr %call, ptr %fLazyContents, align 8
  br label %if.end

lpad:                                             ; preds = %new.notnull
  %2 = landingpad { ptr, i32 }
          cleanup
  tail call void @_ZN6icu_757UMemorydlEPv(ptr noundef nonnull %call) #20
  resume { ptr, i32 } %2

if.end:                                           ; preds = %_ZN6icu_7512LocalPointerINS_7UVectorEED2Ev.exit, %entry
  %3 = phi ptr [ %call, %_ZN6icu_7512LocalPointerINS_7UVectorEED2Ev.exit ], [ %0, %entry ]
  %4 = load i32, ptr %status, align 4
  %cmp.i9 = icmp slt i32 %4, 1
  br i1 %cmp.i9, label %if.end12, label %if.then7

if.then7:                                         ; preds = %if.end
  %fValueDeleter = getelementptr inbounds i8, ptr %this, i64 48
  %5 = load ptr, ptr %fValueDeleter, align 8
  %tobool8.not = icmp eq ptr %5, null
  br i1 %tobool8.not, label %return, label %if.then9

if.then9:                                         ; preds = %if.then7
  tail call void %5(ptr noundef %key)
  br label %return

if.end12:                                         ; preds = %if.end
  tail call void @_ZN6icu_757UVector10addElementEPvR10UErrorCode(ptr noundef nonnull align 8 dereferenceable(40) %3, ptr noundef %key, ptr noundef nonnull align 4 dereferenceable(4) %status)
  %6 = load i32, ptr %status, align 4
  %cmp.i10 = icmp slt i32 %6, 1
  br i1 %cmp.i10, label %if.end22, label %if.then16

if.then16:                                        ; preds = %if.end12
  %fValueDeleter17 = getelementptr inbounds i8, ptr %this, i64 48
  %7 = load ptr, ptr %fValueDeleter17, align 8
  %tobool18.not = icmp eq ptr %7, null
  br i1 %tobool18.not, label %return, label %if.then19

if.then19:                                        ; preds = %if.then16
  tail call void %7(ptr noundef %key)
  br label %return

if.end22:                                         ; preds = %if.end12
  %8 = load ptr, ptr %fLazyContents, align 8
  tail call void @_ZN6icu_757UVector10addElementEPvR10UErrorCode(ptr noundef nonnull align 8 dereferenceable(40) %8, ptr noundef %value, ptr noundef nonnull align 4 dereferenceable(4) %status)
  br label %return

return:                                           ; preds = %if.then16, %if.then19, %if.then7, %if.then9, %if.end22
  ret void
}